target datalayout = "e-m:e-p270:32:32-p271:32:32-p272:64:64-i64:64-i128:128-f80:128-n8:16:32:64-S128"
target triple = "x86_64-pc-linux-gnu"

%struct.AVFilterContext = type { ptr, ptr, ptr, ptr, ptr, i32, ptr, ptr, i32, ptr, ptr, i32, i32, ptr, ptr, ptr, ptr, i32, ptr, i32, i32 }
%struct.SignalstatsContext = type { ptr, i32, i32, i32, i32, i32, i32, i32, i32, i32, ptr, [4 x i8], [3 x i32], i32, ptr, i32, ptr, ptr, ptr, ptr, ptr, ptr }
%struct.ThreadData = type { ptr, ptr }
%struct.AVChannelLayout = type { i32, i32, %union.anon.1, ptr }
%union.anon.1 = type { i64 }
%struct.AVRational = type { i32, i32 }
%struct.AVFrame = type { [8 x ptr], [8 x i32], ptr, i32, i32, i32, i32, i32, %struct.AVRational, i64, i64, %struct.AVRational, i32, ptr, i32, i32, [8 x ptr], ptr, i32, ptr, i32, i32, i32, i32, i32, i32, i32, i64, ptr, i32, ptr, ptr, i64, i64, i64, i64, ptr, %struct.AVChannelLayout, i64 }

; Function Attrs: nounwind uwtable
define internal void @burn_frame8(ptr noundef %0, ptr noundef %1, i32 noundef %2, i32 noundef %3) #1 {
  %5 = alloca ptr, align 8
  %6 = alloca ptr, align 8
  %7 = alloca i32, align 4
  %8 = alloca i32, align 4
  %9 = alloca i32, align 4
  %10 = alloca i32, align 4
  store ptr %0, ptr %5, align 8, !tbaa !22
  store ptr %1, ptr %6, align 8, !tbaa !33
  store i32 %2, ptr %7, align 4, !tbaa !30
  store i32 %3, ptr %8, align 4, !tbaa !30
  call void @llvm.lifetime.start.p0(i64 4, ptr %9) #11
  %11 = load i32, ptr %7, align 4, !tbaa !30
  %12 = load ptr, ptr %5, align 8, !tbaa !22
  %13 = getelementptr inbounds nuw %struct.SignalstatsContext, ptr %12, i32 0, i32 3
  %14 = load i32, ptr %13, align 8, !tbaa !121
  %15 = ashr i32 %11, %14
  store i32 %15, ptr %9, align 4, !tbaa !30
  call void @llvm.lifetime.start.p0(i64 4, ptr %10) #11
  %16 = load i32, ptr %8, align 4, !tbaa !30
  %17 = load ptr, ptr %5, align 8, !tbaa !22
  %18 = getelementptr inbounds nuw %struct.SignalstatsContext, ptr %17, i32 0, i32 4
  %19 = load i32, ptr %18, align 4, !tbaa !120
  %20 = ashr i32 %16, %19
  store i32 %20, ptr %10, align 4, !tbaa !30
  %21 = load ptr, ptr %5, align 8, !tbaa !22
  %22 = getelementptr inbounds nuw %struct.SignalstatsContext, ptr %21, i32 0, i32 12
  %23 = getelementptr inbounds [3 x i32], ptr %22, i64 0, i64 0
  %24 = load i32, ptr %23, align 4, !tbaa !30
  %25 = trunc i32 %24 to i8
  %26 = load ptr, ptr %6, align 8, !tbaa !33
  %27 = getelementptr inbounds nuw %struct.AVFrame, ptr %26, i32 0, i32 0
  %28 = getelementptr inbounds [8 x ptr], ptr %27, i64 0, i64 0
  %29 = load ptr, ptr %28, align 8, !tbaa !62
  %30 = load i32, ptr %8, align 4, !tbaa !30
  %31 = load ptr, ptr %6, align 8, !tbaa !33
  %32 = getelementptr inbounds nuw %struct.AVFrame, ptr %31, i32 0, i32 1
  %33 = getelementptr inbounds [8 x i32], ptr %32, i64 0, i64 0
  %34 = load i32, ptr %33, align 8, !tbaa !30
  %35 = mul nsw i32 %30, %34
  %36 = load i32, ptr %7, align 4, !tbaa !30
  %37 = add nsw i32 %35, %36
  %38 = sext i32 %37 to i64
  %39 = getelementptr inbounds i8, ptr %29, i64 %38
  store i8 %25, ptr %39, align 1, !tbaa !29
  %40 = load ptr, ptr %5, align 8, !tbaa !22
  %41 = getelementptr inbounds nuw %struct.SignalstatsContext, ptr %40, i32 0, i32 12
  %42 = getelementptr inbounds [3 x i32], ptr %41, i64 0, i64 1
  %43 = load i32, ptr %42, align 4, !tbaa !30
  %44 = trunc i32 %43 to i8
  %45 = load ptr, ptr %6, align 8, !tbaa !33
  %46 = getelementptr inbounds nuw %struct.AVFrame, ptr %45, i32 0, i32 0
  %47 = getelementptr inbounds [8 x ptr], ptr %46, i64 0, i64 1
  %48 = load ptr, ptr %47, align 8, !tbaa !62
  %49 = load i32, ptr %10, align 4, !tbaa !30
  %50 = load ptr, ptr %6, align 8, !tbaa !33
  %51 = getelementptr inbounds nuw %struct.AVFrame, ptr %50, i32 0, i32 1
  %52 = getelementptr inbounds [8 x i32], ptr %51, i64 0, i64 1
  %53 = load i32, ptr %52, align 4, !tbaa !30
  %54 = mul nsw i32 %49, %53
  %55 = load i32, ptr %9, align 4, !tbaa !30
  %56 = add nsw i32 %54, %55
  %57 = sext i32 %56 to i64
  %58 = getelementptr inbounds i8, ptr %48, i64 %57
  store i8 %44, ptr %58, align 1, !tbaa !29
  %59 = load ptr, ptr %5, align 8, !tbaa !22
  %60 = getelementptr inbounds nuw %struct.SignalstatsContext, ptr %59, i32 0, i32 12
  %61 = getelementptr inbounds [3 x i32], ptr %60, i64 0, i64 2
  %62 = load i32, ptr %61, align 4, !tbaa !30
  %63 = trunc i32 %62 to i8
  %64 = load ptr, ptr %6, align 8, !tbaa !33
  %65 = getelementptr inbounds nuw %struct.AVFrame, ptr %64, i32 0, i32 0
  %66 = getelementptr inbounds [8 x ptr], ptr %65, i64 0, i64 2
  %67 = load ptr, ptr %66, align 8, !tbaa !62
  %68 = load i32, ptr %10, align 4, !tbaa !30
  %69 = load ptr, ptr %6, align 8, !tbaa !33
  %70 = getelementptr inbounds nuw %struct.AVFrame, ptr %69, i32 0, i32 1
  %71 = getelementptr inbounds [8 x i32], ptr %70, i64 0, i64 2
  %72 = load i32, ptr %71, align 8, !tbaa !30
  %73 = mul nsw i32 %68, %72
  %74 = load i32, ptr %9, align 4, !tbaa !30
  %75 = add nsw i32 %73, %74
  %76 = sext i32 %75 to i64
  %77 = getelementptr inbounds i8, ptr %67, i64 %76
  store i8 %63, ptr %77, align 1, !tbaa !29
  call void @llvm.lifetime.end.p0(i64 4, ptr %10) #11
  call void @llvm.lifetime.end.p0(i64 4, ptr %9) #11
  ret void
}

; Function Attrs: nounwind uwtable
define internal i32 @filter8_vrep(ptr noundef %0, ptr noundef %1, i32 noundef %2, i32 noundef %3) #1 {
  %5 = alloca ptr, align 8
  %6 = alloca ptr, align 8
  %7 = alloca i32, align 4
  %8 = alloca i32, align 4
  %9 = alloca ptr, align 8
  %10 = alloca ptr, align 8
  %11 = alloca ptr, align 8
  %12 = alloca ptr, align 8
  %13 = alloca i32, align 4
  %14 = alloca i32, align 4
  %15 = alloca i32, align 4
  %16 = alloca i32, align 4
  %17 = alloca ptr, align 8
  %18 = alloca i32, align 4
  %19 = alloca i32, align 4
  %20 = alloca i32, align 4
  %21 = alloca i32, align 4
  %22 = alloca i32, align 4
  %23 = alloca i32, align 4
  %24 = alloca i32, align 4
  %25 = alloca i32, align 4
  %26 = alloca i32, align 4
  store ptr %0, ptr %5, align 8, !tbaa !4
  store ptr %1, ptr %6, align 8, !tbaa !93
  store i32 %2, ptr %7, align 4, !tbaa !30
  store i32 %3, ptr %8, align 4, !tbaa !30
  call void @llvm.lifetime.start.p0(i64 8, ptr %9) #11
  %27 = load ptr, ptr %6, align 8, !tbaa !93
  store ptr %27, ptr %9, align 8, !tbaa !100
  call void @llvm.lifetime.start.p0(i64 8, ptr %10) #11
  %28 = load ptr, ptr %5, align 8, !tbaa !4
  %29 = getelementptr inbounds nuw %struct.AVFilterContext, ptr %28, i32 0, i32 9
  %30 = load ptr, ptr %29, align 8, !tbaa !9
  store ptr %30, ptr %10, align 8, !tbaa !22
  call void @llvm.lifetime.start.p0(i64 8, ptr %11) #11
  %31 = load ptr, ptr %9, align 8, !tbaa !100
  %32 = getelementptr inbounds nuw %struct.ThreadData, ptr %31, i32 0, i32 0
  %33 = load ptr, ptr %32, align 8, !tbaa !77
  store ptr %33, ptr %11, align 8, !tbaa !33
  call void @llvm.lifetime.start.p0(i64 8, ptr %12) #11
  %34 = load ptr, ptr %9, align 8, !tbaa !100
  %35 = getelementptr inbounds nuw %struct.ThreadData, ptr %34, i32 0, i32 1
  %36 = load ptr, ptr %35, align 8, !tbaa !79
  store ptr %36, ptr %12, align 8, !tbaa !33
  call void @llvm.lifetime.start.p0(i64 4, ptr %13) #11
  %37 = load ptr, ptr %11, align 8, !tbaa !33
  %38 = getelementptr inbounds nuw %struct.AVFrame, ptr %37, i32 0, i32 3
  %39 = load i32, ptr %38, align 8, !tbaa !102
  store i32 %39, ptr %13, align 4, !tbaa !30
  call void @llvm.lifetime.start.p0(i64 4, ptr %14) #11
  %40 = load ptr, ptr %11, align 8, !tbaa !33
  %41 = getelementptr inbounds nuw %struct.AVFrame, ptr %40, i32 0, i32 4
  %42 = load i32, ptr %41, align 4, !tbaa !107
  store i32 %42, ptr %14, align 4, !tbaa !30
  call void @llvm.lifetime.start.p0(i64 4, ptr %15) #11
  %43 = load i32, ptr %14, align 4, !tbaa !30
  %44 = load i32, ptr %7, align 4, !tbaa !30
  %45 = mul nsw i32 %43, %44
  %46 = load i32, ptr %8, align 4, !tbaa !30
  %47 = sdiv i32 %45, %46
  store i32 %47, ptr %15, align 4, !tbaa !30
  call void @llvm.lifetime.start.p0(i64 4, ptr %16) #11
  %48 = load i32, ptr %14, align 4, !tbaa !30
  %49 = load i32, ptr %7, align 4, !tbaa !30
  %50 = add nsw i32 %49, 1
  %51 = mul nsw i32 %48, %50
  %52 = load i32, ptr %8, align 4, !tbaa !30
  %53 = sdiv i32 %51, %52
  store i32 %53, ptr %16, align 4, !tbaa !30
  call void @llvm.lifetime.start.p0(i64 8, ptr %17) #11
  %54 = load ptr, ptr %11, align 8, !tbaa !33
  %55 = getelementptr inbounds nuw %struct.AVFrame, ptr %54, i32 0, i32 0
  %56 = getelementptr inbounds [8 x ptr], ptr %55, i64 0, i64 0
  %57 = load ptr, ptr %56, align 8, !tbaa !62
  store ptr %57, ptr %17, align 8, !tbaa !62
  call void @llvm.lifetime.start.p0(i64 4, ptr %18) #11
  %58 = load ptr, ptr %11, align 8, !tbaa !33
  %59 = getelementptr inbounds nuw %struct.AVFrame, ptr %58, i32 0, i32 1
  %60 = getelementptr inbounds [8 x i32], ptr %59, i64 0, i64 0
  %61 = load i32, ptr %60, align 8, !tbaa !30
  store i32 %61, ptr %18, align 4, !tbaa !30
  call void @llvm.lifetime.start.p0(i64 4, ptr %19) #11
  call void @llvm.lifetime.start.p0(i64 4, ptr %20) #11
  call void @llvm.lifetime.start.p0(i64 4, ptr %21) #11
  store i32 0, ptr %21, align 4, !tbaa !30
  %62 = load i32, ptr %15, align 4, !tbaa !30
  store i32 %62, ptr %20, align 4, !tbaa !30
  br label %63

63:                                               ; preds = %138, %4
  %64 = load i32, ptr %20, align 4, !tbaa !30
  %65 = load i32, ptr %16, align 4, !tbaa !30
  %66 = icmp slt i32 %64, %65
  br i1 %66, label %67, label %141

67:                                               ; preds = %63
  call void @llvm.lifetime.start.p0(i64 4, ptr %22) #11
  %68 = load i32, ptr %20, align 4, !tbaa !30
  %69 = sub nsw i32 %68, 4
  %70 = load i32, ptr %18, align 4, !tbaa !30
  %71 = mul nsw i32 %69, %70
  store i32 %71, ptr %22, align 4, !tbaa !30
  call void @llvm.lifetime.start.p0(i64 4, ptr %23) #11
  %72 = load i32, ptr %20, align 4, !tbaa !30
  %73 = load i32, ptr %18, align 4, !tbaa !30
  %74 = mul nsw i32 %72, %73
  store i32 %74, ptr %23, align 4, !tbaa !30
  call void @llvm.lifetime.start.p0(i64 4, ptr %24) #11
  call void @llvm.lifetime.start.p0(i64 4, ptr %25) #11
  store i32 0, ptr %25, align 4, !tbaa !30
  %75 = load i32, ptr %20, align 4, !tbaa !30
  %76 = icmp slt i32 %75, 4
  br i1 %76, label %77, label %78

77:                                               ; preds = %67
  store i32 4, ptr %26, align 4
  br label %135

78:                                               ; preds = %67
  store i32 0, ptr %19, align 4, !tbaa !30
  br label %79

79:                                               ; preds = %104, %78
  %80 = load i32, ptr %19, align 4, !tbaa !30
  %81 = load i32, ptr %13, align 4, !tbaa !30
  %82 = icmp slt i32 %80, %81
  br i1 %82, label %83, label %107

83:                                               ; preds = %79
  %84 = load ptr, ptr %17, align 8, !tbaa !62
  %85 = load i32, ptr %22, align 4, !tbaa !30
  %86 = load i32, ptr %19, align 4, !tbaa !30
  %87 = add nsw i32 %85, %86
  %88 = sext i32 %87 to i64
  %89 = getelementptr inbounds i8, ptr %84, i64 %88
  %90 = load i8, ptr %89, align 1, !tbaa !29
  %91 = zext i8 %90 to i32
  %92 = load ptr, ptr %17, align 8, !tbaa !62
  %93 = load i32, ptr %23, align 4, !tbaa !30
  %94 = load i32, ptr %19, align 4, !tbaa !30
  %95 = add nsw i32 %93, %94
  %96 = sext i32 %95 to i64
  %97 = getelementptr inbounds i8, ptr %92, i64 %96
  %98 = load i8, ptr %97, align 1, !tbaa !29
  %99 = zext i8 %98 to i32
  %100 = sub nsw i32 %91, %99
  %101 = call i32 @llvm.abs.i32(i32 %100, i1 true)
  %102 = load i32, ptr %25, align 4, !tbaa !30
  %103 = add nsw i32 %102, %101
  store i32 %103, ptr %25, align 4, !tbaa !30
  br label %104

104:                                              ; preds = %83
  %105 = load i32, ptr %19, align 4, !tbaa !30
  %106 = add nsw i32 %105, 1
  store i32 %106, ptr %19, align 4, !tbaa !30
  br label %79, !llvm.loop !114

107:                                              ; preds = %79
  %108 = load i32, ptr %25, align 4, !tbaa !30
  %109 = load i32, ptr %13, align 4, !tbaa !30
  %110 = icmp slt i32 %108, %109
  %111 = zext i1 %110 to i32
  store i32 %111, ptr %24, align 4, !tbaa !30
  %112 = load i32, ptr %24, align 4, !tbaa !30
  %113 = load i32, ptr %21, align 4, !tbaa !30
  %114 = add nsw i32 %113, %112
  store i32 %114, ptr %21, align 4, !tbaa !30
  %115 = load i32, ptr %24, align 4, !tbaa !30
  %116 = icmp ne i32 %115, 0
  br i1 %116, label %117, label %134

117:                                              ; preds = %107
  %118 = load ptr, ptr %12, align 8, !tbaa !33
  %119 = icmp ne ptr %118, null
  br i1 %119, label %120, label %134

120:                                              ; preds = %117
  store i32 0, ptr %19, align 4, !tbaa !30
  br label %121

121:                                              ; preds = %130, %120
  %122 = load i32, ptr %19, align 4, !tbaa !30
  %123 = load i32, ptr %13, align 4, !tbaa !30
  %124 = icmp slt i32 %122, %123
  br i1 %124, label %125, label %133

125:                                              ; preds = %121
  %126 = load ptr, ptr %10, align 8, !tbaa !22
  %127 = load ptr, ptr %12, align 8, !tbaa !33
  %128 = load i32, ptr %19, align 4, !tbaa !30
  %129 = load i32, ptr %20, align 4, !tbaa !30
  call void @burn_frame8(ptr noundef %126, ptr noundef %127, i32 noundef %128, i32 noundef %129)
  br label %130

130:                                              ; preds = %125
  %131 = load i32, ptr %19, align 4, !tbaa !30
  %132 = add nsw i32 %131, 1
  store i32 %132, ptr %19, align 4, !tbaa !30
  br label %121, !llvm.loop !115

133:                                              ; preds = %121
  br label %134

134:                                              ; preds = %133, %117, %107
  store i32 0, ptr %26, align 4
  br label %135

135:                                              ; preds = %134, %77
  call void @llvm.lifetime.end.p0(i64 4, ptr %25) #11
  call void @llvm.lifetime.end.p0(i64 4, ptr %24) #11
  call void @llvm.lifetime.end.p0(i64 4, ptr %23) #11
  call void @llvm.lifetime.end.p0(i64 4, ptr %22) #11
  %136 = load i32, ptr %26, align 4
  switch i32 %136, label %145 [
    i32 0, label %137
    i32 4, label %138
  ]

137:                                              ; preds = %135
  br label %138

138:                                              ; preds = %137, %135
  %139 = load i32, ptr %20, align 4, !tbaa !30
  %140 = add nsw i32 %139, 1
  store i32 %140, ptr %20, align 4, !tbaa !30
  br label %63, !llvm.loop !116

141:                                              ; preds = %63
  %142 = load i32, ptr %21, align 4, !tbaa !30
  %143 = load i32, ptr %13, align 4, !tbaa !30
  %144 = mul nsw i32 %142, %143
  store i32 1, ptr %26, align 4
  call void @llvm.lifetime.end.p0(i64 4, ptr %21) #11
  call void @llvm.lifetime.end.p0(i64 4, ptr %20) #11
  call void @llvm.lifetime.end.p0(i64 4, ptr %19) #11
  call void @llvm.lifetime.end.p0(i64 4, ptr %18) #11
  call void @llvm.lifetime.end.p0(i64 8, ptr %17) #11
  call void @llvm.lifetime.end.p0(i64 4, ptr %16) #11
  call void @llvm.lifetime.end.p0(i64 4, ptr %15) #11
  call void @llvm.lifetime.end.p0(i64 4, ptr %14) #11
  call void @llvm.lifetime.end.p0(i64 4, ptr %13) #11
  call void @llvm.lifetime.end.p0(i64 8, ptr %12) #11
  call void @llvm.lifetime.end.p0(i64 8, ptr %11) #11
  call void @llvm.lifetime.end.p0(i64 8, ptr %10) #11
  call void @llvm.lifetime.end.p0(i64 8, ptr %9) #11
  ret i32 %144

145:                                              ; preds = %135
  unreachable
}