; Function Attrs: nofree norecurse nosync nounwind memory(readwrite, inaccessiblemem: none) uwtable
define internal i32 @filter8_vrep(ptr noundef readonly captures(none) %0, ptr noundef readonly captures(none) %1, i32 noundef %2, i32 noundef %3) #6 {
  %5 = load ptr, ptr %1, align 8, !tbaa !70
  %6 = getelementptr inbounds nuw i8, ptr %1, i64 8
  %7 = load ptr, ptr %6, align 8, !tbaa !72
  %.fr105 = freeze ptr %7
  %8 = getelementptr inbounds nuw i8, ptr %5, i64 104
  %9 = load i32, ptr %8, align 8, !tbaa !95
  %.fr = freeze i32 %9
  %10 = getelementptr inbounds nuw i8, ptr %5, i64 108
  %11 = load i32, ptr %10, align 4, !tbaa !89
  %12 = mul nsw i32 %11, %2
  %13 = sdiv i32 %12, %3
  %14 = add nsw i32 %2, 1
  %15 = mul nsw i32 %11, %14
  %16 = sdiv i32 %15, %3
  %17 = load ptr, ptr %5, align 8, !tbaa !54
  %18 = getelementptr inbounds nuw i8, ptr %5, i64 64
  %19 = load i32, ptr %18, align 8, !tbaa !26
  %20 = icmp slt i32 %13, %16
  br i1 %20, label %.lr.ph63, label %._crit_edge64

.lr.ph63:                                         ; preds = %4
  %21 = getelementptr inbounds nuw i8, ptr %0, i64 72
  %22 = load ptr, ptr %21, align 8, !tbaa !4
  %23 = icmp sgt i32 %.fr, 0
  %.not = icmp eq ptr %.fr105, null
  %24 = getelementptr inbounds nuw i8, ptr %22, i64 16
  %25 = getelementptr inbounds nuw i8, ptr %22, i64 20
  %26 = getelementptr inbounds nuw i8, ptr %22, i64 60
  %27 = getelementptr inbounds nuw i8, ptr %.fr105, i64 64
  %28 = getelementptr inbounds nuw i8, ptr %22, i64 64
  %29 = getelementptr inbounds nuw i8, ptr %.fr105, i64 8
  %30 = getelementptr inbounds nuw i8, ptr %.fr105, i64 68
  %31 = getelementptr inbounds nuw i8, ptr %22, i64 68
  %32 = getelementptr inbounds nuw i8, ptr %.fr105, i64 16
  %33 = getelementptr inbounds nuw i8, ptr %.fr105, i64 72
  br i1 %.not, label %.lr.ph63.split.us, label %.lr.ph63.split

.lr.ph63.split.us:                                ; preds = %.lr.ph63
  br i1 %23, label %.lr.ph63.split.us.split.us.preheader, label %._crit_edge64

.lr.ph63.split.us.split.us.preheader:             ; preds = %.lr.ph63.split.us
  %34 = sext i32 %13 to i64
  %35 = sext i32 %19 to i64
  %wide.trip.count138 = sext i32 %16 to i64
  %wide.trip.count133 = zext nneg i32 %.fr to i64
  br label %.lr.ph63.split.us.split.us

.lr.ph63.split.us.split.us:                       ; preds = %.lr.ph63.split.us.split.us.preheader, %47
  %indvars.iv135 = phi i64 [ %34, %.lr.ph63.split.us.split.us.preheader ], [ %indvars.iv.next136, %47 ]
  %.05059.us.us = phi i32 [ 0, %.lr.ph63.split.us.split.us.preheader ], [ %.151.us.us, %47 ]
  %36 = icmp slt i64 %indvars.iv135, 4
  br i1 %36, label %47, label %.preheader54.us.us.preheader

.preheader54.us.us.preheader:                     ; preds = %.lr.ph63.split.us.split.us
  %37 = mul nsw i64 %indvars.iv135, %35
  %38 = add nsw i64 %indvars.iv135, -4
  %39 = mul nsw i64 %38, %35
  %invariant.gep144 = getelementptr i8, ptr %17, i64 %39
  %invariant.gep146 = getelementptr i8, ptr %17, i64 %37
  br label %.preheader54.us.us

.preheader54.us.us:                               ; preds = %.preheader54.us.us.preheader, %.preheader54.us.us
  %indvars.iv130 = phi i64 [ 0, %.preheader54.us.us.preheader ], [ %indvars.iv.next131, %.preheader54.us.us ]
  %.056.us.us = phi i32 [ 0, %.preheader54.us.us.preheader ], [ %46, %.preheader54.us.us ]
  %gep145 = getelementptr i8, ptr %invariant.gep144, i64 %indvars.iv130
  %40 = load i8, ptr %gep145, align 1, !tbaa !25
  %41 = zext i8 %40 to i32
  %gep147 = getelementptr i8, ptr %invariant.gep146, i64 %indvars.iv130
  %42 = load i8, ptr %gep147, align 1, !tbaa !25
  %43 = zext i8 %42 to i32
  %44 = sub nsw i32 %41, %43
  %45 = tail call i32 @llvm.abs.i32(i32 %44, i1 true)
  %46 = add nuw nsw i32 %45, %.056.us.us
  %indvars.iv.next131 = add nuw nsw i64 %indvars.iv130, 1
  %exitcond134.not = icmp eq i64 %indvars.iv.next131, %wide.trip.count133
  br i1 %exitcond134.not, label %._crit_edge.us.us, label %.preheader54.us.us, !llvm.loop !104

47:                                               ; preds = %._crit_edge.us.us, %.lr.ph63.split.us.split.us
  %.151.us.us = phi i32 [ %.05059.us.us, %.lr.ph63.split.us.split.us ], [ %50, %._crit_edge.us.us ]
  %indvars.iv.next136 = add nsw i64 %indvars.iv135, 1
  %exitcond139.not = icmp eq i64 %indvars.iv.next136, %wide.trip.count138
  br i1 %exitcond139.not, label %._crit_edge64, label %.lr.ph63.split.us.split.us, !llvm.loop !105

._crit_edge.us.us:                                ; preds = %.preheader54.us.us
  %48 = icmp slt i32 %46, %.fr
  %49 = zext i1 %48 to i32
  %50 = add nsw i32 %.05059.us.us, %49
  br label %47

.lr.ph63.split:                                   ; preds = %.lr.ph63
  br i1 %23, label %.lr.ph63.split.split.us.preheader, label %._crit_edge64

.lr.ph63.split.split.us.preheader:                ; preds = %.lr.ph63.split
  %51 = sext i32 %13 to i64
  %52 = sext i32 %19 to i64
  %wide.trip.count128 = sext i32 %16 to i64
  %wide.trip.count122 = zext nneg i32 %.fr to i64
  br label %.lr.ph63.split.split.us

.lr.ph63.split.split.us:                          ; preds = %.lr.ph63.split.split.us.preheader, %..loopexit_crit_edge.us
  %indvars.iv125 = phi i64 [ %51, %.lr.ph63.split.split.us.preheader ], [ %indvars.iv.next126, %..loopexit_crit_edge.us ]
  %.05059.us67 = phi i32 [ 0, %.lr.ph63.split.split.us.preheader ], [ %.151.us71, %..loopexit_crit_edge.us ]
  %53 = icmp slt i64 %indvars.iv125, 4
  br i1 %53, label %..loopexit_crit_edge.us, label %.lr.ph.us73.preheader

._crit_edge.us74:                                 ; preds = %.lr.ph.us73
  %54 = icmp slt i32 %93, %.fr
  %55 = zext i1 %54 to i32
  %56 = add nsw i32 %.05059.us67, %55
  br i1 %54, label %.preheader.us.preheader, label %..loopexit_crit_edge.us

.preheader.us.preheader:                          ; preds = %._crit_edge.us74
  %57 = trunc nsw i64 %indvars.iv125 to i32
  br label %.preheader.us

.preheader.us:                                    ; preds = %.preheader.us.preheader, %.preheader.us
  %.157.us = phi i32 [ %86, %.preheader.us ], [ 0, %.preheader.us.preheader ]
  %58 = load i32, ptr %24, align 8, !tbaa !96
  %59 = lshr i32 %.157.us, %58
  %60 = load i32, ptr %25, align 4, !tbaa !97
  %61 = lshr i32 %57, %60
  %62 = load i32, ptr %26, align 4, !tbaa !26
  %63 = trunc i32 %62 to i8
  %64 = load ptr, ptr %.fr105, align 8, !tbaa !54
  %65 = load i32, ptr %27, align 8, !tbaa !26
  %66 = mul nsw i32 %65, %57
  %67 = add nsw i32 %66, %.157.us
  %68 = sext i32 %67 to i64
  %69 = getelementptr inbounds i8, ptr %64, i64 %68
  store i8 %63, ptr %69, align 1, !tbaa !25
  %70 = load i32, ptr %28, align 4, !tbaa !26
  %71 = trunc i32 %70 to i8
  %72 = load ptr, ptr %29, align 8, !tbaa !54
  %73 = load i32, ptr %30, align 4, !tbaa !26
  %74 = mul nsw i32 %73, %61
  %75 = add nsw i32 %74, %59
  %76 = sext i32 %75 to i64
  %77 = getelementptr inbounds i8, ptr %72, i64 %76
  store i8 %71, ptr %77, align 1, !tbaa !25
  %78 = load i32, ptr %31, align 4, !tbaa !26
  %79 = trunc i32 %78 to i8
  %80 = load ptr, ptr %32, align 8, !tbaa !54
  %81 = load i32, ptr %33, align 8, !tbaa !26
  %82 = mul nsw i32 %81, %61
  %83 = add nsw i32 %82, %59
  %84 = sext i32 %83 to i64
  %85 = getelementptr inbounds i8, ptr %80, i64 %84
  store i8 %79, ptr %85, align 1, !tbaa !25
  %86 = add nuw nsw i32 %.157.us, 1
  %exitcond124.not = icmp eq i32 %86, %.fr
  br i1 %exitcond124.not, label %..loopexit_crit_edge.us, label %.preheader.us, !llvm.loop !106

.lr.ph.us73:                                      ; preds = %.lr.ph.us73.preheader, %.lr.ph.us73
  %indvars.iv119 = phi i64 [ 0, %.lr.ph.us73.preheader ], [ %indvars.iv.next120, %.lr.ph.us73 ]
  %.056.us69 = phi i32 [ 0, %.lr.ph.us73.preheader ], [ %93, %.lr.ph.us73 ]
  %gep = getelementptr i8, ptr %invariant.gep, i64 %indvars.iv119
  %87 = load i8, ptr %gep, align 1, !tbaa !25
  %88 = zext i8 %87 to i32
  %gep143 = getelementptr i8, ptr %invariant.gep142, i64 %indvars.iv119
  %89 = load i8, ptr %gep143, align 1, !tbaa !25
  %90 = zext i8 %89 to i32
  %91 = sub nsw i32 %88, %90
  %92 = tail call i32 @llvm.abs.i32(i32 %91, i1 true)
  %93 = add nuw nsw i32 %92, %.056.us69
  %indvars.iv.next120 = add nuw nsw i64 %indvars.iv119, 1
  %exitcond123.not = icmp eq i64 %indvars.iv.next120, %wide.trip.count122
  br i1 %exitcond123.not, label %._crit_edge.us74, label %.lr.ph.us73, !llvm.loop !104

..loopexit_crit_edge.us:                          ; preds = %.preheader.us, %._crit_edge.us74, %.lr.ph63.split.split.us
  %.151.us71 = phi i32 [ %.05059.us67, %.lr.ph63.split.split.us ], [ %56, %._crit_edge.us74 ], [ %56, %.preheader.us ]
  %indvars.iv.next126 = add nsw i64 %indvars.iv125, 1
  %exitcond129.not = icmp eq i64 %indvars.iv.next126, %wide.trip.count128
  br i1 %exitcond129.not, label %._crit_edge64, label %.lr.ph63.split.split.us, !llvm.loop !105

.lr.ph.us73.preheader:                            ; preds = %.lr.ph63.split.split.us
  %94 = mul nsw i64 %indvars.iv125, %52
  %95 = add nsw i64 %indvars.iv125, -4
  %96 = mul nsw i64 %95, %52
  %invariant.gep = getelementptr i8, ptr %17, i64 %96
  %invariant.gep142 = getelementptr i8, ptr %17, i64 %94
  br label %.lr.ph.us73

._crit_edge64:                                    ; preds = %..loopexit_crit_edge.us, %47, %.lr.ph63.split, %.lr.ph63.split.us, %4
  %.050.lcssa = phi i32 [ 0, %4 ], [ 0, %.lr.ph63.split.us ], [ 0, %.lr.ph63.split ], [ %.151.us.us, %47 ], [ %.151.us71, %..loopexit_crit_edge.us ]
  %97 = mul nsw i32 %.050.lcssa, %.fr
  ret i32 %97
}